; Function Attrs: nounwind uwtable
define dso_local i64 @regconfigout(ptr noundef readonly captures(none) %0) local_unnamed_addr #0 {
  %2 = getelementptr inbounds nuw i8, ptr %0, i64 32
  %3 = load i64, ptr %2, align 8
  %4 = trunc i64 %3 to i32
  %5 = icmp eq i32 %4, 0
  br i1 %5, label %6, label %8

6:                                                ; preds = %1
  %7 = tail call ptr @pstrdup(ptr noundef nonnull @.str.4) #9
  br label %28

8:                                                ; preds = %1
  %9 = and i64 %3, 4294967295
  %10 = tail call ptr @SearchSysCache1(i32 noundef 74, i64 noundef %9) #9
  %.not = icmp eq ptr %10, null
  br i1 %.not, label %25, label %11

11:                                               ; preds = %8
  %12 = getelementptr i8, ptr %10, i64 16
  %.val = load ptr, ptr %12, align 8
  %13 = getelementptr inbounds nuw i8, ptr %.val, i64 22
  %14 = load i8, ptr %13, align 2
  %15 = zext i8 %14 to i64
  %16 = getelementptr inbounds nuw i8, ptr %.val, i64 %15
  %17 = getelementptr inbounds nuw i8, ptr %16, i64 4
  %18 = tail call zeroext i1 @TSConfigIsVisible(i32 noundef %4) #9
  br i1 %18, label %23, label %19

19:                                               ; preds = %11
  %20 = getelementptr inbounds nuw i8, ptr %16, i64 68
  %21 = load i32, ptr %20, align 4
  %22 = tail call ptr @get_namespace_name(i32 noundef %21) #9
  br label %23

23:                                               ; preds = %11, %19
  %.0 = phi ptr [ %22, %19 ], [ null, %11 ]
  %24 = tail call ptr @quote_qualified_identifier(ptr noundef %.0, ptr noundef nonnull %17) #9
  tail call void @ReleaseSysCache(ptr noundef nonnull %10) #9
  br label %28

25:                                               ; preds = %8
  %26 = tail call ptr @palloc(i64 noundef 64) #9
  %27 = tail call i32 (ptr, i64, ptr, ...) @pg_snprintf(ptr noundef %26, i64 noundef 64, ptr noundef nonnull @.str.5, i32 noundef %4) #9
  br label %28

28:                                               ; preds = %23, %25, %6
  %.015.in = phi ptr [ %7, %6 ], [ %24, %23 ], [ %26, %25 ]
  %.015 = ptrtoint ptr %.015.in to i64
  ret i64 %.015
}